; Function Attrs: mustprogress nounwind uwtable
define dso_local void @_ZN4llvm18DIEDwarfExpression15emitBaseTypeRefEm(ptr noundef nonnull align 8 dereferenceable(128) %0, i64 noundef %1) unnamed_addr #0 align 2 {
  %3 = getelementptr inbounds nuw i8, ptr %0, i64 16
  %4 = load ptr, ptr %3, align 8
  %5 = getelementptr inbounds nuw i8, ptr %0, i64 120
  %6 = load i8, ptr %5, align 8
  %7 = trunc i8 %6 to i1
  %8 = getelementptr inbounds nuw i8, ptr %0, i64 104
  %9 = getelementptr inbounds nuw i8, ptr %0, i64 96
  %10 = load ptr, ptr %9, align 8
  %11 = select i1 %7, ptr %8, ptr %10
  tail call void @_ZN4llvm16DwarfCompileUnit14addBaseTypeRefERNS_12DIEValueListEl(ptr noundef nonnull align 8 dereferenceable(696) %4, ptr noundef nonnull align 8 dereferenceable(8) %11, i64 noundef %1) #19
  ret void
}